target datalayout = "e-m:e-p270:32:32-p271:32:32-p272:64:64-i64:64-i128:128-f80:128-n8:16:32:64-S128"
target triple = "x86_64-pc-linux-gnu"

; Function Attrs: mustprogress uwtable
define noundef signext i8 @_ZNK6icu_7717GregorianCalendar11boundsCheckEi19UCalendarDateFields(ptr noundef nonnull align 8 dereferenceable(222) %0, i32 noundef %1, i32 noundef %2) #1 align 2 {
  %4 = alloca ptr, align 8
  %5 = alloca i32, align 4
  %6 = alloca i32, align 4
  store ptr %0, ptr %4, align 8, !tbaa !3
  store i32 %1, ptr %5, align 4, !tbaa !31
  store i32 %2, ptr %6, align 4, !tbaa !45
  %7 = load ptr, ptr %4, align 8
  %8 = load i32, ptr %5, align 4, !tbaa !31
  %9 = load i32, ptr %6, align 4, !tbaa !45
  %10 = load ptr, ptr %7, align 8, !tbaa !9
  %11 = getelementptr inbounds ptr, ptr %10, i64 14
  %12 = load ptr, ptr %11, align 8
  %13 = call noundef i32 %12(ptr noundef nonnull align 8 dereferenceable(192) %7, i32 noundef %9)
  %14 = icmp sge i32 %8, %13
  br i1 %14, label %15, label %23

15:                                               ; preds = %3
  %16 = load i32, ptr %5, align 4, !tbaa !31
  %17 = load i32, ptr %6, align 4, !tbaa !45
  %18 = load ptr, ptr %7, align 8, !tbaa !9
  %19 = getelementptr inbounds ptr, ptr %18, i64 16
  %20 = load ptr, ptr %19, align 8
  %21 = call noundef i32 %20(ptr noundef nonnull align 8 dereferenceable(192) %7, i32 noundef %17)
  %22 = icmp sle i32 %16, %21
  br label %23

23:                                               ; preds = %15, %3
  %24 = phi i1 [ false, %3 ], [ %22, %15 ]
  %25 = zext i1 %24 to i8
  ret i8 %25
}