; Function Attrs: mustprogress uwtable
define noundef signext range(i8 0, 2) i8 @_ZNK6icu_7717GregorianCalendar11boundsCheckEi19UCalendarDateFields(ptr noundef nonnull align 8 dereferenceable(222) %0, i32 noundef %1, i32 noundef %2) local_unnamed_addr #1 align 2 {
  %4 = load ptr, ptr %0, align 8, !tbaa !3
  %5 = getelementptr inbounds nuw i8, ptr %4, i64 112
  %6 = load ptr, ptr %5, align 8
  %7 = tail call noundef i32 %6(ptr noundef nonnull align 8 dereferenceable(192) %0, i32 noundef %2)
  %.not = icmp slt i32 %1, %7
  br i1 %.not, label %15, label %8

8:                                                ; preds = %3
  %9 = load ptr, ptr %0, align 8, !tbaa !3
  %10 = getelementptr inbounds nuw i8, ptr %9, i64 128
  %11 = load ptr, ptr %10, align 8
  %12 = tail call noundef i32 %11(ptr noundef nonnull align 8 dereferenceable(192) %0, i32 noundef %2)
  %13 = icmp sle i32 %1, %12
  %14 = zext i1 %13 to i8
  br label %15

15:                                               ; preds = %8, %3
  %16 = phi i8 [ 0, %3 ], [ %14, %8 ]
  ret i8 %16
}